   1               		.file	"mainControl.c"
   2               	__SREG__ = 0x3f
   3               	__SP_H__ = 0x3e
   4               	__SP_L__ = 0x3d
   5               	__CCP__  = 0x34
   6               	__tmp_reg__ = 0
   7               	__zero_reg__ = 1
  15               	.Ltext0:
  16               		.section	.text.initializeGlobal,"ax",@progbits
  17               	.global	initializeGlobal
  19               	initializeGlobal:
  20               	.LFB12:
  21               	.LSM0:
  22               	/* prologue: function */
  23               	/* frame size = 0 */
  24               	.LSM1:
  25 0000 6F9A      		sbi 45-32,7
  26               	.LSM2:
  27 0002 209A      		sbi 36-32,0
  28               	.LSM3:
  29 0004 219A      		sbi 36-32,1
  30               	.LSM4:
  31 0006 229A      		sbi 36-32,2
  32               	.LSM5:
  33 0008 6E9A      		sbi 45-32,6
  34               	/* epilogue start */
  35               	.LSM6:
  36 000a 0895      		ret
  37               	.LFE12:
  39               		.section	.text.convert_by_division,"ax",@progbits
  40               	.global	convert_by_division
  42               	convert_by_division:
  43               	.LFB13:
  44               	.LSM7:
  45               	.LVL0:
  46               	/* prologue: function */
  47               	/* frame size = 0 */
  48 0000 9C01      		movw r18,r24
  49 0002 FB01      		movw r30,r22
  50               	.LSM8:
  51 0004 6AE0      		ldi r22,lo8(10)
  52 0006 70E0      		ldi r23,hi8(10)
  53               	.LVL1:
  54 0008 0E94 0000 		call __udivmodhi4
  55               	.LVL2:
  56 000c 805D      		subi r24,lo8(-(48))
  57 000e 8083      		st Z,r24
  58               	.LSM9:
  59 0010 C901      		movw r24,r18
  60 0012 64E6      		ldi r22,lo8(100)
  61 0014 70E0      		ldi r23,hi8(100)
  62 0016 0E94 0000 		call __udivmodhi4
  63 001a 6AE0      		ldi r22,lo8(10)
  64 001c 70E0      		ldi r23,hi8(10)
  65 001e 0E94 0000 		call __udivmodhi4
  66 0022 605D      		subi r22,lo8(-(48))
  67 0024 6183      		std Z+1,r22
  68               	.LSM10:
  69 0026 C901      		movw r24,r18
  70 0028 68EE      		ldi r22,lo8(1000)
  71 002a 73E0      		ldi r23,hi8(1000)
  72 002c 0E94 0000 		call __udivmodhi4
  73 0030 9C01      		movw r18,r24
  74               	.LVL3:
  75 0032 64E6      		ldi r22,lo8(100)
  76 0034 70E0      		ldi r23,hi8(100)
  77 0036 0E94 0000 		call __udivmodhi4
  78 003a 605D      		subi r22,lo8(-(48))
  79 003c 6283      		std Z+2,r22
  80               	.LSM11:
  81 003e C901      		movw r24,r18
  82 0040 68EE      		ldi r22,lo8(1000)
  83 0042 73E0      		ldi r23,hi8(1000)
  84 0044 0E94 0000 		call __udivmodhi4
  85 0048 605D      		subi r22,lo8(-(48))
  86 004a 6383      		std Z+3,r22
  87               	/* epilogue start */
  88               	.LSM12:
  89 004c 0895      		ret
  90               	.LFE13:
  92               		.section	.text.convertAsciiToInt,"ax",@progbits
  93               	.global	convertAsciiToInt
  95               	convertAsciiToInt:
  96               	.LFB14:
  97               	.LSM13:
  98               	.LVL4:
  99 0000 EF92      		push r14
 100 0002 FF92      		push r15
 101 0004 0F93      		push r16
 102 0006 1F93      		push r17
 103 0008 CF93      		push r28
 104 000a DF93      		push r29
 105               	/* prologue: function */
 106               	/* frame size = 0 */
 107 000c 7C01      		movw r14,r24
 108 000e 8B01      		movw r16,r22
 109               	.LSM14:
 110 0010 EB01      		movw r28,r22
 111 0012 2197      		sbiw r28,1
 112 0014 60E0      		ldi r22,lo8(0)
 113 0016 70E0      		ldi r23,hi8(0)
 114               	.LVL5:
 115 0018 A0E0      		ldi r26,lo8(0)
 116 001a B0E0      		ldi r27,hi8(0)
 117               	.LVL6:
 118 001c 00C0      		rjmp .L6
 119               	.LVL7:
 120               	.L11:
 121               	.LBB18:
 122               	.LSM15:
 123 001e F701      		movw r30,r14
 124 0020 EA0F      		add r30,r26
 125 0022 FB1F      		adc r31,r27
 126 0024 E081      		ld r30,Z
 127 0026 8E2F      		mov r24,r30
 128 0028 8053      		subi r24,lo8(-(-48))
 129 002a 8A30      		cpi r24,lo8(10)
 130 002c 00F0      		brlo .L7
 131 002e 60E0      		ldi r22,lo8(0)
 132 0030 70E0      		ldi r23,hi8(0)
 133 0032 00C0      		rjmp .L8
 134               	.L7:
 135 0034 40E0      		ldi r20,lo8(0)
 136 0036 50E0      		ldi r21,hi8(0)
 137               	.LVL8:
 138 0038 21E0      		ldi r18,lo8(1)
 139 003a 30E0      		ldi r19,hi8(1)
 140 003c 00C0      		rjmp .L9
 141               	.L10:
 142               	.LSM16:
 143 003e C901      		movw r24,r18
 144 0040 880F      		lsl r24
 145 0042 991F      		rol r25
 146 0044 F3E0      		ldi r31,3
 147 0046 220F      	1:	lsl r18
 148 0048 331F      		rol r19
 149 004a FA95      		dec r31
 150 004c 01F4      		brne 1b
 151 004e 280F      		add r18,r24
 152 0050 391F      		adc r19,r25
 153               	.LSM17:
 154 0052 4F5F      		subi r20,lo8(-(1))
 155 0054 5F4F      		sbci r21,hi8(-(1))
 156               	.L9:
 157 0056 4C17      		cp r20,r28
 158 0058 5D07      		cpc r21,r29
 159 005a 00F0      		brlo .L10
 160               	.LSM18:
 161 005c 8E2F      		mov r24,r30
 162 005e 90E0      		ldi r25,lo8(0)
 163 0060 C097      		sbiw r24,48
 164 0062 AC01      		movw r20,r24
 165               	.LVL9:
 166 0064 249F      		mul r18,r20
 167 0066 C001      		movw r24,r0
 168 0068 259F      		mul r18,r21
 169 006a 900D      		add r25,r0
 170 006c 349F      		mul r19,r20
 171 006e 900D      		add r25,r0
 172 0070 1124      		clr r1
 173 0072 680F      		add r22,r24
 174 0074 791F      		adc r23,r25
 175               	.LBE18:
 176               	.LSM19:
 177 0076 1196      		adiw r26,1
 178 0078 2197      		sbiw r28,1
 179               	.LVL10:
 180               	.L6:
 181 007a A017      		cp r26,r16
 182 007c B107      		cpc r27,r17
 183 007e 00F0      		brlo .L11
 184               	.L8:
 185               	.LSM20:
 186 0080 CB01      		movw r24,r22
 187               	.LVL11:
 188               	/* epilogue start */
 189 0082 DF91      		pop r29
 190 0084 CF91      		pop r28
 191 0086 1F91      		pop r17
 192 0088 0F91      		pop r16
 193               	.LVL12:
 194 008a FF90      		pop r15
 195 008c EF90      		pop r14
 196               	.LVL13:
 197 008e 0895      		ret
 198               	.LFE14:
 200               		.section	.text.send_str,"ax",@progbits
 201               	.global	send_str
 203               	send_str:
 204               	.LFB9:
 205               	.LSM21:
 206               	.LVL14:
 207 0000 CF93      		push r28
 208 0002 DF93      		push r29
 209               	/* prologue: function */
 210               	/* frame size = 0 */
 211 0004 EC01      		movw r28,r24
 212               	.LVL15:
 213               	.L15:
 214               	.LSM22:
 215 0006 FE01      		movw r30,r28
 216               	.LVL16:
 217               	.LBB19:
 218               	.LSM23:
 219 0008 2196      		adiw r28,1
 220               	/* #APP */
 221               	 ;  115 "mainControl.c" 1
 222 000a 8491      		lpm r24, Z
 223               		
 224               	 ;  0 "" 2
 225               	.LVL17:
 226               	/* #NOAPP */
 227               	.LBE19:
 228               	.LSM24:
 229 000c 8823      		tst r24
 230 000e 01F0      		breq .L16
 231               	.LSM25:
 232 0010 0E94 0000 		call usb_serial_putchar
 233               	.LVL18:
 234 0014 00C0      		rjmp .L15
 235               	.LVL19:
 236               	.L16:
 237               	/* epilogue start */
 238               	.LSM26:
 239 0016 DF91      		pop r29
 240 0018 CF91      		pop r28
 241               	.LVL20:
 242 001a 0895      		ret
 243               	.LFE9:
 245               		.section	.text.parse_and_execute_command,"ax",@progbits
 246               	.global	parse_and_execute_command
 248               	parse_and_execute_command:
 249               	.LFB11:
 250               	.LSM27:
 251               	.LVL21:
 252 0000 FF92      		push r15
 253 0002 0F93      		push r16
 254 0004 1F93      		push r17
 255 0006 DF93      		push r29
 256 0008 CF93      		push r28
 257 000a 00D0      		rcall .
 258 000c 00D0      		rcall .
 259 000e 00D0      		rcall .
 260 0010 CDB7      		in r28,__SP_L__
 261 0012 DEB7      		in r29,__SP_H__
 262               	/* prologue: function */
 263               	/* frame size = 6 */
 264 0014 8C01      		movw r16,r24
 265 0016 F62E      		mov r15,r22
 266               	.LSM28:
 267 0018 8091 0000 		lds r24,verbose
 268               	.LVL22:
 269 001c 8823      		tst r24
 270 001e 01F0      		breq .L18
 271               	.LVL23:
 272               	.LSM29:
 273 0020 80E0      		ldi r24,lo8(__c.1925)
 274 0022 90E0      		ldi r25,hi8(__c.1925)
 275 0024 0E94 0000 		call send_str
 276               	.LSM30:
 277 0028 C801      		movw r24,r16
 278 002a 6F2D      		mov r22,r15
 279 002c 70E0      		ldi r23,lo8(0)
 280 002e 0E94 0000 		call usb_serial_write
 281               	.LSM31:
 282 0032 80E0      		ldi r24,lo8(__c.1927)
 283 0034 90E0      		ldi r25,hi8(__c.1927)
 284 0036 0E94 0000 		call send_str
 285               	.LVL24:
 286               	.L18:
 287               	.LSM32:
 288 003a 83E0      		ldi r24,lo8(3)
 289 003c 8F15      		cp r24,r15
 290 003e 00F0      		brlo .L19
 291               	.LSM33:
 292 0040 80E0      		ldi r24,lo8(__c.1929)
 293 0042 90E0      		ldi r25,hi8(__c.1929)
 294 0044 00C0      		rjmp .L63
 295               	.L19:
 296               	.LSM34:
 297 0046 F801      		movw r30,r16
 298 0048 8081      		ld r24,Z
 299 004a 8434      		cpi r24,lo8(68)
 300 004c 01F0      		breq .+2
 301 004e 00C0      		rjmp .L21
 302               	.LSM35:
 303 0050 7698      		cbi 46-32,6
 304               	.LSM36:
 305 0052 9681      		ldd r25,Z+6
 306 0054 9F33      		cpi r25,lo8(63)
 307 0056 01F4      		brne .L22
 308               	.LSM37:
 309 0058 8085      		ldd r24,Z+8
 310 005a 8053      		subi r24,lo8(-(-48))
 311 005c 0E94 0000 		call CheckDamper
 312               	.LSM38:
 313 0060 90E0      		ldi r25,lo8(0)
 314               	.LVL25:
 315 0062 C096      		adiw r24,48
 316               	.LVL26:
 317 0064 0E94 0000 		call send_str
 318               	.LVL27:
 319               	.LSM39:
 320 0068 80E0      		ldi r24,lo8(__c.1931)
 321 006a 90E0      		ldi r25,hi8(__c.1931)
 322 006c 00C0      		rjmp .L63
 323               	.LVL28:
 324               	.L22:
 325               	.LSM40:
 326 006e F801      		movw r30,r16
 327 0070 8781      		ldd r24,Z+7
 328 0072 B0ED      		ldi r27,lo8(-48)
 329 0074 FB2E      		mov r15,r27
 330               	.LVL29:
 331 0076 F80E      		add r15,r24
 332               	.LSM41:
 333 0078 9133      		cpi r25,lo8(49)
 334 007a 01F4      		brne .L23
 335               	.LSM42:
 336 007c AAED      		ldi r26,lo8(-38)
 337 007e FA2E      		mov r15,r26
 338 0080 F80E      		add r15,r24
 339               	.L23:
 340               	.LSM43:
 341 0082 F801      		movw r30,r16
 342 0084 8085      		ldd r24,Z+8
 343 0086 8033      		cpi r24,lo8(48)
 344 0088 01F4      		brne .L24
 345               	.LSM44:
 346 008a 8F2D      		mov r24,r15
 347 008c 0E94 0000 		call OpenDamper
 348               	.LVL30:
 349               	.LSM45:
 350 0090 8091 0000 		lds r24,verbose
 351 0094 8823      		tst r24
 352 0096 01F4      		brne .+2
 353 0098 00C0      		rjmp .L61
 354               	.LSM46:
 355 009a 80E0      		ldi r24,lo8(__c.1933)
 356 009c 90E0      		ldi r25,hi8(__c.1933)
 357 009e 00C0      		rjmp .L63
 358               	.LVL31:
 359               	.L24:
 360               	.LSM47:
 361 00a0 8091 0000 		lds r24,verbose
 362 00a4 8823      		tst r24
 363 00a6 01F0      		breq .L25
 364               	.LBB20:
 365               	.LSM48:
 366 00a8 F6E2      		ldi r31,lo8(38)
 367 00aa FF0E      		add r15,r31
 368 00ac F982      		std Y+1,r15
 369               	.LSM49:
 370 00ae 8AE0      		ldi r24,lo8(10)
 371 00b0 F80E      		add r15,r24
 372 00b2 FA82      		std Y+2,r15
 373 00b4 E0ED      		ldi r30,lo8(-48)
 374 00b6 FE0E      		add r15,r30
 375               	.LSM50:
 376 00b8 80E0      		ldi r24,lo8(__c.1936)
 377 00ba 90E0      		ldi r25,hi8(__c.1936)
 378 00bc 0E94 0000 		call send_str
 379               	.LVL32:
 380               	.LSM51:
 381 00c0 CE01      		movw r24,r28
 382 00c2 0196      		adiw r24,1
 383 00c4 62E0      		ldi r22,lo8(2)
 384 00c6 70E0      		ldi r23,hi8(2)
 385 00c8 0E94 0000 		call usb_serial_write
 386               	.LSM52:
 387 00cc 80E0      		ldi r24,lo8(__c.1938)
 388 00ce 90E0      		ldi r25,hi8(__c.1938)
 389 00d0 0E94 0000 		call send_str
 390               	.LVL33:
 391               	.L25:
 392               	.LBE20:
 393               	.LSM53:
 394 00d4 8F2D      		mov r24,r15
 395 00d6 0E94 0000 		call CloseDamper
 396               	.LVL34:
 397               	.LSM54:
 398 00da 8091 0000 		lds r24,verbose
 399 00de 8823      		tst r24
 400 00e0 01F4      		brne .+2
 401 00e2 00C0      		rjmp .L61
 402               	.LSM55:
 403 00e4 80E0      		ldi r24,lo8(__c.1940)
 404 00e6 90E0      		ldi r25,hi8(__c.1940)
 405 00e8 00C0      		rjmp .L63
 406               	.LVL35:
 407               	.L21:
 408               	.LSM56:
 409 00ea 8834      		cpi r24,lo8(72)
 410 00ec 01F0      		breq .+2
 411 00ee 00C0      		rjmp .L26
 412               	.LSM57:
 413 00f0 8091 0000 		lds r24,verbose
 414 00f4 8823      		tst r24
 415 00f6 01F0      		breq .L27
 416               	.LSM58:
 417 00f8 80E0      		ldi r24,lo8(__c.1942)
 418 00fa 90E0      		ldi r25,hi8(__c.1942)
 419 00fc 0E94 0000 		call send_str
 420               	.LVL36:
 421               	.L27:
 422               	.LSM59:
 423 0100 F801      		movw r30,r16
 424 0102 8481      		ldd r24,Z+4
 425 0104 8F33      		cpi r24,lo8(63)
 426 0106 01F4      		brne .L28
 427               	.LSM60:
 428 0108 2091 0000 		lds r18,GFanStatus
 429 010c 3091 0000 		lds r19,(GFanStatus)+1
 430 0110 2115      		cp r18,__zero_reg__
 431 0112 3105      		cpc r19,__zero_reg__
 432 0114 01F4      		brne .L29
 433               	.LSM61:
 434 0116 0E94 0000 		call ReadGFan
 435 011a 8130      		cpi r24,lo8(1)
 436 011c 01F4      		brne .L30
 437               	.LSM62:
 438 011e 0E94 0000 		call ReadWHeat
 439 0122 8130      		cpi r24,lo8(1)
 440 0124 01F4      		brne .L31
 441               	.LSM63:
 442 0126 80E0      		ldi r24,lo8(__c.1944)
 443 0128 90E0      		ldi r25,hi8(__c.1944)
 444 012a 00C0      		rjmp .L63
 445               	.L31:
 446               	.LSM64:
 447 012c 0E94 0000 		call ReadYCool
 448 0130 8130      		cpi r24,lo8(1)
 449 0132 01F4      		brne .L32
 450               	.LSM65:
 451 0134 80E0      		ldi r24,lo8(__c.1946)
 452 0136 90E0      		ldi r25,hi8(__c.1946)
 453 0138 00C0      		rjmp .L63
 454               	.L32:
 455               	.LSM66:
 456 013a 80E0      		ldi r24,lo8(__c.1948)
 457 013c 90E0      		ldi r25,hi8(__c.1948)
 458 013e 00C0      		rjmp .L63
 459               	.L30:
 460               	.LSM67:
 461 0140 80E0      		ldi r24,lo8(__c.1950)
 462 0142 90E0      		ldi r25,hi8(__c.1950)
 463 0144 00C0      		rjmp .L63
 464               	.LVL37:
 465               	.L29:
 466               	.LSM68:
 467 0146 8091 0000 		lds r24,WHeatStatus
 468 014a 9091 0000 		lds r25,(WHeatStatus)+1
 469 014e 0197      		sbiw r24,1
 470 0150 01F4      		brne .L33
 471               	.LSM69:
 472 0152 80E0      		ldi r24,lo8(__c.1952)
 473 0154 90E0      		ldi r25,hi8(__c.1952)
 474 0156 00C0      		rjmp .L63
 475               	.L33:
 476               	.LSM70:
 477 0158 8091 0000 		lds r24,YCoolStatus
 478 015c 9091 0000 		lds r25,(YCoolStatus)+1
 479 0160 0197      		sbiw r24,1
 480 0162 01F4      		brne .L34
 481               	.LSM71:
 482 0164 80E0      		ldi r24,lo8(__c.1954)
 483 0166 90E0      		ldi r25,hi8(__c.1954)
 484 0168 00C0      		rjmp .L63
 485               	.L34:
 486               	.LSM72:
 487 016a 2130      		cpi r18,1
 488 016c 3105      		cpc r19,__zero_reg__
 489 016e 01F4      		brne .L35
 490               	.LSM73:
 491 0170 80E0      		ldi r24,lo8(__c.1956)
 492 0172 90E0      		ldi r25,hi8(__c.1956)
 493 0174 00C0      		rjmp .L63
 494               	.L35:
 495               	.LSM74:
 496 0176 80E0      		ldi r24,lo8(__c.1958)
 497 0178 90E0      		ldi r25,hi8(__c.1958)
 498 017a 00C0      		rjmp .L63
 499               	.L28:
 500               	.LSM75:
 501 017c 8133      		cpi r24,lo8(49)
 502 017e 01F4      		brne .L36
 503               	.LSM76:
 504 0180 80E0      		ldi r24,lo8(0)
 505 0182 0E94 0000 		call SetWHeat
 506               	.LSM77:
 507 0186 80E0      		ldi r24,lo8(0)
 508 0188 0E94 0000 		call SetYCool
 509               	.LSM78:
 510 018c 80E0      		ldi r24,lo8(0)
 511 018e 0E94 0000 		call SetGFan
 512               	.LSM79:
 513 0192 80E0      		ldi r24,lo8(0)
 514 0194 0E94 0000 		call SetHVAC
 515               	.LSM80:
 516 0198 8091 0000 		lds r24,verbose
 517 019c 8823      		tst r24
 518 019e 01F4      		brne .+2
 519 01a0 00C0      		rjmp .L61
 520               	.LSM81:
 521 01a2 80E0      		ldi r24,lo8(__c.1960)
 522 01a4 90E0      		ldi r25,hi8(__c.1960)
 523 01a6 00C0      		rjmp .L63
 524               	.LVL38:
 525               	.L36:
 526               	.LSM82:
 527 01a8 8233      		cpi r24,lo8(50)
 528 01aa 01F4      		brne .L37
 529               	.LSM83:
 530 01ac 80E0      		ldi r24,lo8(0)
 531 01ae 0E94 0000 		call SetWHeat
 532               	.LSM84:
 533 01b2 80E0      		ldi r24,lo8(0)
 534 01b4 0E94 0000 		call SetYCool
 535               	.LSM85:
 536 01b8 81E0      		ldi r24,lo8(1)
 537 01ba 0E94 0000 		call SetGFan
 538               	.LSM86:
 539 01be 81E0      		ldi r24,lo8(1)
 540 01c0 0E94 0000 		call SetHVAC
 541               	.LSM87:
 542 01c4 8091 0000 		lds r24,verbose
 543 01c8 8823      		tst r24
 544 01ca 01F4      		brne .+2
 545 01cc 00C0      		rjmp .L61
 546               	.LSM88:
 547 01ce 80E0      		ldi r24,lo8(__c.1962)
 548 01d0 90E0      		ldi r25,hi8(__c.1962)
 549 01d2 00C0      		rjmp .L63
 550               	.LVL39:
 551               	.L37:
 552               	.LSM89:
 553 01d4 8333      		cpi r24,lo8(51)
 554 01d6 01F4      		brne .L38
 555               	.LSM90:
 556 01d8 81E0      		ldi r24,lo8(1)
 557 01da 0E94 0000 		call SetGFan
 558               	.LSM91:
 559 01de 81E0      		ldi r24,lo8(1)
 560 01e0 0E94 0000 		call SetWHeat
 561               	.LSM92:
 562 01e4 80E0      		ldi r24,lo8(0)
 563 01e6 0E94 0000 		call SetYCool
 564               	.LSM93:
 565 01ea 81E0      		ldi r24,lo8(1)
 566 01ec 0E94 0000 		call SetHVAC
 567               	.LSM94:
 568 01f0 8091 0000 		lds r24,verbose
 569 01f4 8823      		tst r24
 570 01f6 01F4      		brne .+2
 571 01f8 00C0      		rjmp .L61
 572               	.LSM95:
 573 01fa 80E0      		ldi r24,lo8(__c.1964)
 574 01fc 90E0      		ldi r25,hi8(__c.1964)
 575 01fe 00C0      		rjmp .L63
 576               	.LVL40:
 577               	.L38:
 578               	.LSM96:
 579 0200 8433      		cpi r24,lo8(52)
 580 0202 01F4      		brne .L39
 581               	.LSM97:
 582 0204 81E0      		ldi r24,lo8(1)
 583 0206 0E94 0000 		call SetGFan
 584               	.LSM98:
 585 020a 80E0      		ldi r24,lo8(0)
 586 020c 0E94 0000 		call SetWHeat
 587               	.LSM99:
 588 0210 80E0      		ldi r24,lo8(0)
 589 0212 0E94 0000 		call SetYCool
 590               	.LSM100:
 591 0216 81E0      		ldi r24,lo8(1)
 592 0218 0E94 0000 		call SetHVAC
 593               	.LSM101:
 594 021c 8091 0000 		lds r24,verbose
 595 0220 8823      		tst r24
 596 0222 01F4      		brne .+2
 597 0224 00C0      		rjmp .L61
 598               	.LSM102:
 599 0226 80E0      		ldi r24,lo8(__c.1966)
 600 0228 90E0      		ldi r25,hi8(__c.1966)
 601 022a 00C0      		rjmp .L63
 602               	.LVL41:
 603               	.L39:
 604               	.LSM103:
 605 022c 8533      		cpi r24,lo8(53)
 606 022e 01F0      		breq .+2
 607 0230 00C0      		rjmp .L61
 608               	.LSM104:
 609 0232 80E0      		ldi r24,lo8(0)
 610 0234 0E94 0000 		call SetGFan
 611               	.LSM105:
 612 0238 80E0      		ldi r24,lo8(0)
 613 023a 0E94 0000 		call SetWHeat
 614               	.LSM106:
 615 023e 80E0      		ldi r24,lo8(0)
 616 0240 0E94 0000 		call SetYCool
 617               	.LSM107:
 618 0244 81E0      		ldi r24,lo8(1)
 619 0246 0E94 0000 		call SetHVAC
 620               	.LSM108:
 621 024a 8091 0000 		lds r24,verbose
 622 024e 8823      		tst r24
 623 0250 01F4      		brne .+2
 624 0252 00C0      		rjmp .L61
 625               	.LSM109:
 626 0254 80E0      		ldi r24,lo8(__c.1968)
 627 0256 90E0      		ldi r25,hi8(__c.1968)
 628 0258 00C0      		rjmp .L63
 629               	.LVL42:
 630               	.L26:
 631               	.LSM110:
 632 025a 8435      		cpi r24,lo8(84)
 633 025c 01F4      		brne .L40
 634               	.LBB21:
 635               	.LSM111:
 636 025e 769A      		sbi 46-32,6
 637               	.LSM112:
 638 0260 F801      		movw r30,r16
 639 0262 8481      		ldd r24,Z+4
 640 0264 8983      		std Y+1,r24
 641               	.LSM113:
 642 0266 8581      		ldd r24,Z+5
 643 0268 8A83      		std Y+2,r24
 644               	.LSM114:
 645 026a 80E0      		ldi r24,lo8(__c.1971)
 646 026c 90E0      		ldi r25,hi8(__c.1971)
 647 026e 0E94 0000 		call send_str
 648               	.LSM115:
 649 0272 CE01      		movw r24,r28
 650 0274 0196      		adiw r24,1
 651 0276 0E94 0000 		call ReadTempSensor
 652               	.LSM116:
 653 027a 8E01      		movw r16,r28
 654               	.LVL43:
 655 027c 0D5F      		subi r16,lo8(-(3))
 656 027e 1F4F      		sbci r17,hi8(-(3))
 657 0280 B801      		movw r22,r16
 658 0282 0E94 0000 		call convert_by_division
 659               	.LSM117:
 660 0286 C801      		movw r24,r16
 661 0288 64E0      		ldi r22,lo8(4)
 662 028a 70E0      		ldi r23,hi8(4)
 663 028c 0E94 0000 		call usb_serial_write
 664               	.LSM118:
 665 0290 80E0      		ldi r24,lo8(__c.1975)
 666 0292 90E0      		ldi r25,hi8(__c.1975)
 667 0294 00C0      		rjmp .L63
 668               	.LVL44:
 669               	.L40:
 670               	.LBE21:
 671               	.LSM119:
 672 0296 8734      		cpi r24,lo8(71)
 673 0298 01F4      		brne .L41
 674               	.LSM120:
 675 029a 0E94 0000 		call PulseGarage
 676 029e 00C0      		rjmp .L61
 677               	.LVL45:
 678               	.L41:
 679               	.LSM121:
 680 02a0 8335      		cpi r24,lo8(83)
 681 02a2 01F4      		brne .L42
 682               	.LSM122:
 683 02a4 8091 0000 		lds r24,verbose
 684 02a8 8823      		tst r24
 685 02aa 01F0      		breq .L43
 686               	.LSM123:
 687 02ac 80E0      		ldi r24,lo8(__c.1977)
 688 02ae 90E0      		ldi r25,hi8(__c.1977)
 689 02b0 0E94 0000 		call send_str
 690               	.LVL46:
 691               	.L43:
 692               	.LSM124:
 693 02b4 F801      		movw r30,r16
 694 02b6 8185      		ldd r24,Z+9
 695 02b8 6285      		ldd r22,Z+10
 696 02ba 0E94 0000 		call SprinklerCntrl
 697 02be 00C0      		rjmp .L61
 698               	.LVL47:
 699               	.L42:
 700               	.LSM125:
 701 02c0 8634      		cpi r24,lo8(70)
 702 02c2 01F0      		breq .+2
 703 02c4 00C0      		rjmp .L44
 704               	.LBB22:
 705               	.LSM126:
 706 02c6 8091 0000 		lds r24,verbose
 707 02ca 8823      		tst r24
 708 02cc 01F0      		breq .L45
 709               	.LSM127:
 710 02ce 80E0      		ldi r24,lo8(__c.1980)
 711 02d0 90E0      		ldi r25,hi8(__c.1980)
 712 02d2 0E94 0000 		call send_str
 713               	.LVL48:
 714               	.L45:
 715               	.LSM128:
 716 02d6 F801      		movw r30,r16
 717 02d8 8381      		ldd r24,Z+3
 718 02da 8F33      		cpi r24,lo8(63)
 719 02dc 01F0      		breq .+2
 720 02de 00C0      		rjmp .L46
 721               	.LBB23:
 722               	.LSM129:
 723 02e0 8091 0000 		lds r24,verbose
 724 02e4 8823      		tst r24
 725 02e6 01F0      		breq .L47
 726               	.LSM130:
 727 02e8 80E0      		ldi r24,lo8(__c.1982)
 728 02ea 90E0      		ldi r25,hi8(__c.1982)
 729 02ec 0E94 0000 		call send_str
 730               	.LVL49:
 731               	.L47:
 732               	.LSM131:
 733 02f0 F801      		movw r30,r16
 734 02f2 8581      		ldd r24,Z+5
 735 02f4 8337      		cpi r24,lo8(115)
 736 02f6 01F4      		brne .L48
 737               	.LSM132:
 738 02f8 8091 0000 		lds r24,verbose
 739 02fc 8823      		tst r24
 740 02fe 01F0      		breq .L49
 741               	.LSM133:
 742 0300 80E0      		ldi r24,lo8(__c.1984)
 743 0302 90E0      		ldi r25,hi8(__c.1984)
 744 0304 0E94 0000 		call send_str
 745               	.LVL50:
 746               	.L49:
 747               	.LSM134:
 748 0308 F801      		movw r30,r16
 749 030a 8481      		ldd r24,Z+4
 750 030c 90E0      		ldi r25,lo8(0)
 751 030e 0E94 0000 		call FanSpeedStatus
 752 0312 00C0      		rjmp .L62
 753               	.LVL51:
 754               	.L48:
 755               	.LSM135:
 756 0314 8F36      		cpi r24,lo8(111)
 757 0316 01F4      		brne .L51
 758               	.LSM136:
 759 0318 8091 0000 		lds r24,verbose
 760 031c 8823      		tst r24
 761 031e 01F0      		breq .L52
 762               	.LSM137:
 763 0320 80E0      		ldi r24,lo8(__c.1987)
 764 0322 90E0      		ldi r25,hi8(__c.1987)
 765 0324 0E94 0000 		call send_str
 766               	.LVL52:
 767               	.L52:
 768               	.LSM138:
 769 0328 F801      		movw r30,r16
 770 032a 8481      		ldd r24,Z+4
 771 032c 90E0      		ldi r25,lo8(0)
 772 032e 0E94 0000 		call FanStatus
 773               	.L62:
 774 0332 182F      		mov r17,r24
 775               	.LVL53:
 776 0334 00C0      		rjmp .L50
 777               	.LVL54:
 778               	.L51:
 779               	.LSM139:
 780 0336 81E0      		ldi r24,lo8(1)
 781 0338 8093 0000 		sts invalidInput,r24
 782 033c 10E3      		ldi r17,lo8(48)
 783               	.LVL55:
 784               	.L50:
 785               	.LSM140:
 786 033e 8091 0000 		lds r24,verbose
 787 0342 8823      		tst r24
 788 0344 01F0      		breq .L53
 789               	.LSM141:
 790 0346 80E0      		ldi r24,lo8(__c.1990)
 791 0348 90E0      		ldi r25,hi8(__c.1990)
 792 034a 0E94 0000 		call send_str
 793               	.LVL56:
 794               	.L53:
 795               	.LSM142:
 796 034e 1A83      		std Y+2,r17
 797               	.LSM143:
 798 0350 1B83      		std Y+3,r17
 799               	.LSM144:
 800 0352 CE01      		movw r24,r28
 801 0354 0196      		adiw r24,1
 802 0356 62E0      		ldi r22,lo8(2)
 803 0358 70E0      		ldi r23,hi8(2)
 804 035a 0E94 0000 		call usb_serial_write
 805               	.LSM145:
 806 035e 80E0      		ldi r24,lo8(__c.1993)
 807 0360 90E0      		ldi r25,hi8(__c.1993)
 808 0362 00C0      		rjmp .L63
 809               	.LVL57:
 810               	.L46:
 811               	.LBE23:
 812               	.LSM146:
 813 0364 8053      		subi r24,lo8(-(-48))
 814 0366 8530      		cpi r24,lo8(5)
 815 0368 00F4      		brsh .L54
 816               	.LSM147:
 817 036a 8091 0000 		lds r24,verbose
 818 036e 8823      		tst r24
 819 0370 01F0      		breq .L55
 820               	.LSM148:
 821 0372 80E0      		ldi r24,lo8(__c.1995)
 822 0374 90E0      		ldi r25,hi8(__c.1995)
 823 0376 0E94 0000 		call send_str
 824               	.LVL58:
 825               	.L55:
 826               	.LSM149:
 827 037a F801      		movw r30,r16
 828 037c 8481      		ldd r24,Z+4
 829 037e 9381      		ldd r25,Z+3
 830 0380 8033      		cpi r24,lo8(48)
 831 0382 01F4      		brne .L56
 832               	.LSM150:
 833 0384 892F      		mov r24,r25
 834 0386 90E0      		ldi r25,lo8(0)
 835 0388 0E94 0000 		call TurnFanOff
 836 038c 00C0      		rjmp .L44
 837               	.LVL59:
 838               	.L56:
 839               	.LSM151:
 840 038e F801      		movw r30,r16
 841 0390 6581      		ldd r22,Z+5
 842 0392 892F      		mov r24,r25
 843 0394 90E0      		ldi r25,lo8(0)
 844 0396 70E0      		ldi r23,lo8(0)
 845 0398 0E94 0000 		call SetFan
 846 039c 00C0      		rjmp .L44
 847               	.LVL60:
 848               	.L54:
 849               	.LSM152:
 850 039e 81E0      		ldi r24,lo8(1)
 851 03a0 8093 0000 		sts invalidInput,r24
 852               	.L44:
 853               	.LBE22:
 854               	.LSM153:
 855 03a4 F801      		movw r30,r16
 856 03a6 8081      		ld r24,Z
 857 03a8 8D32      		cpi r24,lo8(45)
 858 03aa 01F4      		brne .L57
 859 03ac 8181      		ldd r24,Z+1
 860 03ae 8836      		cpi r24,lo8(104)
 861 03b0 01F4      		brne .L59
 862 03b2 00C0      		rjmp .L58
 863               	.L57:
 864 03b4 8F33      		cpi r24,lo8(63)
 865 03b6 01F0      		breq .L58
 866               	.L59:
 867 03b8 8091 0000 		lds r24,invalidInput
 868 03bc 8823      		tst r24
 869 03be 01F0      		breq .L60
 870               	.L58:
 871               	.LSM154:
 872 03c0 80E0      		ldi r24,lo8(__c.1999)
 873 03c2 90E0      		ldi r25,hi8(__c.1999)
 874 03c4 0E94 0000 		call send_str
 875               	.LSM155:
 876 03c8 80E0      		ldi r24,lo8(__c.2001)
 877 03ca 90E0      		ldi r25,hi8(__c.2001)
 878 03cc 0E94 0000 		call send_str
 879               	.LSM156:
 880 03d0 80E0      		ldi r24,lo8(__c.2003)
 881 03d2 90E0      		ldi r25,hi8(__c.2003)
 882 03d4 0E94 0000 		call send_str
 883               	.LSM157:
 884 03d8 80E0      		ldi r24,lo8(__c.2005)
 885 03da 90E0      		ldi r25,hi8(__c.2005)
 886 03dc 0E94 0000 		call send_str
 887               	.LSM158:
 888 03e0 80E0      		ldi r24,lo8(__c.2007)
 889 03e2 90E0      		ldi r25,hi8(__c.2007)
 890 03e4 0E94 0000 		call send_str
 891               	.LSM159:
 892 03e8 80E0      		ldi r24,lo8(__c.2009)
 893 03ea 90E0      		ldi r25,hi8(__c.2009)
 894 03ec 0E94 0000 		call send_str
 895               	.LSM160:
 896 03f0 80E0      		ldi r24,lo8(__c.2011)
 897 03f2 90E0      		ldi r25,hi8(__c.2011)
 898 03f4 0E94 0000 		call send_str
 899               	.LSM161:
 900 03f8 80E0      		ldi r24,lo8(__c.2013)
 901 03fa 90E0      		ldi r25,hi8(__c.2013)
 902 03fc 0E94 0000 		call send_str
 903               	.LSM162:
 904 0400 80E0      		ldi r24,lo8(__c.2015)
 905 0402 90E0      		ldi r25,hi8(__c.2015)
 906 0404 0E94 0000 		call send_str
 907               	.LSM163:
 908 0408 80E0      		ldi r24,lo8(__c.2017)
 909 040a 90E0      		ldi r25,hi8(__c.2017)
 910 040c 0E94 0000 		call send_str
 911               	.LSM164:
 912 0410 80E0      		ldi r24,lo8(__c.2019)
 913 0412 90E0      		ldi r25,hi8(__c.2019)
 914 0414 0E94 0000 		call send_str
 915               	.LSM165:
 916 0418 80E0      		ldi r24,lo8(__c.2021)
 917 041a 90E0      		ldi r25,hi8(__c.2021)
 918 041c 0E94 0000 		call send_str
 919               	.LSM166:
 920 0420 80E0      		ldi r24,lo8(__c.2023)
 921 0422 90E0      		ldi r25,hi8(__c.2023)
 922 0424 0E94 0000 		call send_str
 923               	.LSM167:
 924 0428 80E0      		ldi r24,lo8(__c.2025)
 925 042a 90E0      		ldi r25,hi8(__c.2025)
 926 042c 0E94 0000 		call send_str
 927               	.LSM168:
 928 0430 1092 0000 		sts invalidInput,__zero_reg__
 929               	.LVL61:
 930               	.L60:
 931               	.LSM169:
 932 0434 80E0      		ldi r24,lo8(__c.2027)
 933 0436 90E0      		ldi r25,hi8(__c.2027)
 934               	.LVL62:
 935               	.L63:
 936 0438 0E94 0000 		call send_str
 937               	.LVL63:
 938               	.L61:
 939               	/* epilogue start */
 940               	.LSM170:
 941 043c 2696      		adiw r28,6
 942 043e 0FB6      		in __tmp_reg__,__SREG__
 943 0440 F894      		cli
 944 0442 DEBF      		out __SP_H__,r29
 945 0444 0FBE      		out __SREG__,__tmp_reg__
 946 0446 CDBF      		out __SP_L__,r28
 947 0448 CF91      		pop r28
 948 044a DF91      		pop r29
 949 044c 1F91      		pop r17
 950               	.LVL64:
 951 044e 0F91      		pop r16
 952               	.LVL65:
 953 0450 FF90      		pop r15
 954               	.LVL66:
 955 0452 0895      		ret
 956               	.LFE11:
 958               		.section	.text.recv_str,"ax",@progbits
 959               	.global	recv_str
 961               	recv_str:
 962               	.LFB10:
 963               	.LSM171:
 964               	.LVL67:
 965 0000 0F93      		push r16
 966 0002 1F93      		push r17
 967 0004 CF93      		push r28
 968 0006 DF93      		push r29
 969               	/* prologue: function */
 970               	/* frame size = 0 */
 971 0008 EC01      		movw r28,r24
 972 000a 062F      		mov r16,r22
 973               	.LSM172:
 974 000c 10E0      		ldi r17,lo8(0)
 975               	.LVL68:
 976 000e 00C0      		rjmp .L73
 977               	.LVL69:
 978               	.L69:
 979               	.LSM173:
 980 0010 0E94 0000 		call usb_serial_getchar
 981               	.LVL70:
 982 0014 9C01      		movw r18,r24
 983               	.LVL71:
 984               	.LSM174:
 985 0016 8FEF      		ldi r24,hi8(-1)
 986 0018 2F3F      		cpi r18,lo8(-1)
 987 001a 3807      		cpc r19,r24
 988 001c 01F0      		breq .L66
 989               	.LSM175:
 990 001e 2D30      		cpi r18,13
 991 0020 3105      		cpc r19,__zero_reg__
 992 0022 01F0      		breq .L67
 993 0024 2A30      		cpi r18,10
 994 0026 3105      		cpc r19,__zero_reg__
 995 0028 01F0      		breq .L67
 996               	.LSM176:
 997 002a C901      		movw r24,r18
 998 002c 8097      		sbiw r24,32
 999 002e 8F35      		cpi r24,95
 1000 0030 9105      		cpc r25,__zero_reg__
 1001 0032 00F4      		brsh .L73
 1002               	.LSM177:
 1003 0034 2993      		st Y+,r18
 1004               	.LSM178:
 1005 0036 822F      		mov r24,r18
 1006 0038 0E94 0000 		call usb_serial_putchar
 1007               	.LVL72:
 1008               	.LSM179:
 1009 003c 1F5F      		subi r17,lo8(-(1))
 1010 003e 00C0      		rjmp .L73
 1011               	.LVL73:
 1012               	.L66:
 1013               	.LSM180:
 1014 0040 0E94 0000 		call usb_configured
 1015               	.LVL74:
 1016 0044 8823      		tst r24
 1017 0046 01F0      		breq .L68
 1018 0048 0E94 0000 		call usb_serial_get_control
 1019 004c 80FF      		sbrs r24,0
 1020 004e 00C0      		rjmp .L68
 1021               	.LVL75:
 1022               	.L73:
 1023               	.LSM181:
 1024 0050 1017      		cp r17,r16
 1025 0052 00F0      		brlo .L69
 1026 0054 00C0      		rjmp .L67
 1027               	.LVL76:
 1028               	.L68:
 1029 0056 1FEF      		ldi r17,lo8(-1)
 1030               	.LVL77:
 1031               	.L67:
 1032               	.LSM182:
 1033 0058 812F      		mov r24,r17
 1034               	/* epilogue start */
 1035 005a DF91      		pop r29
 1036 005c CF91      		pop r28
 1037               	.LVL78:
 1038 005e 1F91      		pop r17
 1039               	.LVL79:
 1040 0060 0F91      		pop r16
 1041               	.LVL80:
 1042 0062 0895      		ret
 1043               	.LFE10:
 1045               		.section	.text.main,"ax",@progbits
 1046               	.global	main
 1048               	main:
 1049               	.LFB8:
 1050               	.LSM183:
 1051 0000 EF92      		push r14
 1052 0002 FF92      		push r15
 1053 0004 1F93      		push r17
 1054 0006 DF93      		push r29
 1055 0008 CF93      		push r28
 1056 000a CDB7      		in r28,__SP_L__
 1057 000c DEB7      		in r29,__SP_H__
 1058 000e A097      		sbiw r28,32
 1059 0010 0FB6      		in __tmp_reg__,__SREG__
 1060 0012 F894      		cli
 1061 0014 DEBF      		out __SP_H__,r29
 1062 0016 0FBE      		out __SREG__,__tmp_reg__
 1063 0018 CDBF      		out __SP_L__,r28
 1064               	/* prologue: function */
 1065               	/* frame size = 32 */
 1066               	.LSM184:
 1067 001a 82E0      		ldi r24,lo8(2)
 1068 001c 0E94 0000 		call PWMNew
 1069               	.LSM185:
 1070 0020 82E0      		ldi r24,lo8(2)
 1071 0022 0E94 0000 		call PWMStart
 1072               	.LSM186:
 1073 0026 82E0      		ldi r24,lo8(2)
 1074 0028 60E8      		ldi r22,lo8(-128)
 1075 002a 0E94 0000 		call PWMDuty
 1076               	.LSM187:
 1077 002e 80E8      		ldi r24,lo8(-128)
 1078 0030 8093 6100 		sts 97,r24
 1079 0034 1092 6100 		sts 97,__zero_reg__
 1080               	.LSM188:
 1081 0038 0E94 0000 		call initializeGlobal
 1082               	.LSM189:
 1083 003c 0E94 0000 		call initializeHVACGarage
 1084               	.LSM190:
 1085 0040 0E94 0000 		call InitializeDamper
 1086               	.LSM191:
 1087 0044 0E94 0000 		call InitializeSprinkler
 1088               	.LSM192:
 1089 0048 0E94 0000 		call InitializeFans
 1090               	.LSM193:
 1091 004c 0E94 0000 		call usb_init
 1092               	.L75:
 1093               	.LSM194:
 1094 0050 0E94 0000 		call usb_configured
 1095 0054 8823      		tst r24
 1096 0056 01F0      		breq .L75
 1097 0058 80E1      		ldi r24,lo8(10000)
 1098 005a 97E2      		ldi r25,hi8(10000)
 1099               	.LVL81:
 1100               	.LBB24:
 1101               	.LBB25:
 1102               	.LBB26:
 1103               	.LBB27:
 1104               	.LSM195:
 1105 005c 20E9      		ldi r18,lo8(400)
 1106 005e 31E0      		ldi r19,hi8(400)
 1107               	.L76:
 1108 0060 F901      		movw r30,r18
 1109               	.LVL82:
 1110               	/* #APP */
 1111               	 ;  105 "c:/winavr-20100110/lib/gcc/../../avr/include/util/delay_basic.h" 1
 1112 0062 3197      		1: sbiw r30,1
 1113 0064 01F4      		brne 1b
 1114               	 ;  0 "" 2
 1115               	/* #NOAPP */
 1116               	.LBE27:
 1117               	.LBE26:
 1118               	.LSM196:
 1119 0066 0197      		sbiw r24,1
 1120               	.LSM197:
 1121 0068 01F4      		brne .L76
 1122 006a 00C0      		rjmp .L87
 1123               	.LVL83:
 1124               	.L78:
 1125               	.LBE25:
 1126               	.LBE24:
 1127               	.LSM198:
 1128 006c 0E94 0000 		call usb_serial_flush_input
 1129 0070 00C0      		rjmp .L85
 1130               	.LVL84:
 1131               	.L87:
 1132               	.LSM199:
 1133 0072 7E01      		movw r14,r28
 1134 0074 0894      		sec
 1135 0076 E11C      		adc r14,__zero_reg__
 1136 0078 F11C      		adc r15,__zero_reg__
 1137               	.LVL85:
 1138               	.L85:
 1139               	.LSM200:
 1140 007a 0E94 0000 		call usb_serial_get_control
 1141               	.LVL86:
 1142 007e 80FF      		sbrs r24,0
 1143 0080 00C0      		rjmp .L78
 1144               	.LSM201:
 1145 0082 80E0      		ldi r24,lo8(__c.1864)
 1146 0084 90E0      		ldi r25,hi8(__c.1864)
 1147 0086 0E94 0000 		call send_str
 1148               	.LSM202:
 1149 008a 80E0      		ldi r24,lo8(__c.1866)
 1150 008c 90E0      		ldi r25,hi8(__c.1866)
 1151 008e 0E94 0000 		call send_str
 1152               	.LSM203:
 1153 0092 80E0      		ldi r24,lo8(__c.1868)
 1154 0094 90E0      		ldi r25,hi8(__c.1868)
 1155 0096 0E94 0000 		call send_str
 1156               	.LSM204:
 1157 009a 80E0      		ldi r24,lo8(__c.1870)
 1158 009c 90E0      		ldi r25,hi8(__c.1870)
 1159 009e 0E94 0000 		call send_str
 1160               	.L79:
 1161               	.LSM205:
 1162 00a2 80E0      		ldi r24,lo8(__c.1872)
 1163 00a4 90E0      		ldi r25,hi8(__c.1872)
 1164 00a6 0E94 0000 		call send_str
 1165               	.LSM206:
 1166 00aa C701      		movw r24,r14
 1167 00ac 60E2      		ldi r22,lo8(32)
 1168 00ae 0E94 0000 		call recv_str
 1169 00b2 182F      		mov r17,r24
 1170               	.LSM207:
 1171 00b4 8F3F      		cpi r24,lo8(-1)
 1172 00b6 01F0      		breq .L85
 1173               	.LVL87:
 1174               	.LSM208:
 1175 00b8 80E0      		ldi r24,lo8(__c.1875)
 1176 00ba 90E0      		ldi r25,hi8(__c.1875)
 1177               	.LVL88:
 1178 00bc 0E94 0000 		call send_str
 1179               	.LSM209:
 1180 00c0 C701      		movw r24,r14
 1181 00c2 612F      		mov r22,r17
 1182 00c4 0E94 0000 		call parse_and_execute_command
 1183 00c8 00C0      		rjmp .L79
 1184               	.LFE8:
 1186               	.global	verbose
 1187               		.data
 1190               	verbose:
 1191 0000 01        		.byte	1
 1192               	.global	invalidInput
 1193               	.global	invalidInput
 1194               		.section .bss
 1197               	invalidInput:
 1198 0000 00        		.skip 1,0
 1199               		.section	.progmem.data,"a",@progbits
 1202               	__c.2027:
 1203 0000 0D0A 00   		.string	"\r\n"
 1206               	__c.2025:
 1207 0003 4578 616D 		.string	"Examples (to-do)\r\n"
 1207      706C 6573 
 1207      2028 746F 
 1207      2D64 6F29 
 1207      0D0A 00
 1210               	__c.2023:
 1211 0016 2A2A 2A2A 		.string	"***************************************\r\n"
 1211      2A2A 2A2A 
 1211      2A2A 2A2A 
 1211      2A2A 2A2A 
 1211      2A2A 2A2A 
 1214               	__c.2021:
 1215 0040 5370 7269 		.string	"Sprinkler?:\tGets status of sprinkler\r\n"
 1215      6E6B 6C65 
 1215      723F 3A09 
 1215      4765 7473 
 1215      2073 7461 
 1218               	__c.2019:
 1219 0067 5370 7269 		.string	"Sprinkler###:\tturns on/off section of sprinklers\r\n"
 1219      6E6B 6C65 
 1219      7223 2323 
 1219      3A09 7475 
 1219      726E 7320 
 1222               	__c.2017:
 1223 009a 4761 7261 		.string	"Garage:\t\tPulses the Garage open or closed\r\n"
 1223      6765 3A09 
 1223      0950 756C 
 1223      7365 7320 
 1223      7468 6520 
 1226               	__c.2015:
 1227 00c6 4856 4143 		.string	"HVAC#:\t\tSets the HVAC to a specific state\r\n"
 1227      233A 0909 
 1227      5365 7473 
 1227      2074 6865 
 1227      2048 5641 
 1230               	__c.2013:
 1231 00f2 4856 4143 		.string	"HVAC?:\t\tReturns HVAC status\r\n"
 1231      3F3A 0909 
 1231      5265 7475 
 1231      726E 7320 
 1231      4856 4143 
 1234               	__c.2011:
 1235 0110 5465 6D70 		.string	"Temp?##:\tgets the temperature value of the specific sensor\r\n"
 1235      3F23 233A 
 1235      0967 6574 
 1235      7320 7468 
 1235      6520 7465 
 1238               	__c.2009:
 1239 014d 4461 6D70 		.string	"Damper?##:\tReplies whether damper is open or closed\r\n"
 1239      6572 3F23 
 1239      233A 0952 
 1239      6570 6C69 
 1239      6573 2077 
 1242               	__c.2007:
 1243 0183 4461 6D70 		.string	"Damper###:\tTurns on and off Damper\r\n"
 1243      6572 2323 
 1243      233A 0954 
 1243      7572 6E73 
 1243      206F 6E20 
 1246               	__c.2005:
 1247 01a8 2D68 656C 		.string	"-help:\t\tprovides this menu\r\n"
 1247      703A 0909 
 1247      7072 6F76 
 1247      6964 6573 
 1247      2074 6869 
 1250               	__c.2003:
 1251 01c5 4C69 7374 		.string	"List of available commands\r\n\r\n"
 1251      206F 6620 
 1251      6176 6169 
 1251      6C61 626C 
 1251      6520 636F 
 1254               	__c.2001:
 1255 01e4 4845 4C50 		.string	"HELP I don't know what to do\r\n"
 1255      2049 2064 
 1255      6F6E 2774 
 1255      206B 6E6F 
 1255      7720 7768 
 1258               	__c.1999:
 1259 0203 0D0A 2A2A 		.string	"\r\n***************************************\r\n"
 1259      2A2A 2A2A 
 1259      2A2A 2A2A 
 1259      2A2A 2A2A 
 1259      2A2A 2A2A 
 1262               	__c.1995:
 1263 022f 0946 616E 		.string	"\tFan Command\r\n"
 1263      2043 6F6D 
 1263      6D61 6E64 
 1263      0D0A 00
 1266               	__c.1993:
 1267 023e 0D0A 00   		.string	"\r\n"
 1270               	__c.1990:
 1271 0241 0946 616E 		.string	"\tFan Print Status Section>>>\r\n"
 1271      2050 7269 
 1271      6E74 2053 
 1271      7461 7475 
 1271      7320 5365 
 1274               	__c.1987:
 1275 0260 0909 4661 		.string	"\t\tFan On/Off Status Section\r\n"
 1275      6E20 4F6E 
 1275      2F4F 6666 
 1275      2053 7461 
 1275      7475 7320 
 1278               	__c.1984:
 1279 027e 0909 4661 		.string	"\t\tFan Speed Status Section\r\n"
 1279      6E20 5370 
 1279      6565 6420 
 1279      5374 6174 
 1279      7573 2053 
 1282               	__c.1982:
 1283 029b 0946 616E 		.string	"\tFan Status section\r\n"
 1283      2053 7461 
 1283      7475 7320 
 1283      7365 6374 
 1283      696F 6E0D 
 1286               	__c.1980:
 1287 02b1 4661 6E20 		.string	"Fan Section\r\n"
 1287      5365 6374 
 1287      696F 6E0D 
 1287      0A00 
 1290               	__c.1977:
 1291 02bf 5370 7269 		.string	"Sprinkler Section\r\n"
 1291      6E6B 6C65 
 1291      7220 5365 
 1291      6374 696F 
 1291      6E0D 0A00 
 1294               	__c.1975:
 1295 02d3 0D0A 00   		.string	"\r\n"
 1298               	__c.1971:
 1299 02d6 0A0D 00   		.string	"\n\r"
 1302               	__c.1968:
 1303 02d9 5365 7276 		.string	"Server controlled OFF\r\n"
 1303      6572 2063 
 1303      6F6E 7472 
 1303      6F6C 6C65 
 1303      6420 4F46 
 1306               	__c.1966:
 1307 02f1 5365 7276 		.string	"Server controlled Fan and Cooling\r\n"
 1307      6572 2063 
 1307      6F6E 7472 
 1307      6F6C 6C65 
 1307      6420 4661 
 1310               	__c.1964:
 1311 0315 5365 7276 		.string	"Server controlled Fan and Heating\r\n"
 1311      6572 2063 
 1311      6F6E 7472 
 1311      6F6C 6C65 
 1311      6420 4661 
 1314               	__c.1962:
 1315 0339 5365 7276 		.string	"Server controlled Fan\r\n"
 1315      6572 2063 
 1315      6F6E 7472 
 1315      6F6C 6C65 
 1315      6420 4661 
 1318               	__c.1960:
 1319 0351 5365 7276 		.string	"Server controlled off\r\n"
 1319      6572 2063 
 1319      6F6E 7472 
 1319      6F6C 6C65 
 1319      6420 6F66 
 1322               	__c.1958:
 1323 0369 380D 0A00 		.string	"8\r\n"
 1326               	__c.1956:
 1327 036d 340D 0A00 		.string	"4\r\n"
 1330               	__c.1954:
 1331 0371 360D 0A00 		.string	"6\r\n"
 1334               	__c.1952:
 1335 0375 350D 0A00 		.string	"5\r\n"
 1338               	__c.1950:
 1339 0379 370D 0A00 		.string	"7\r\n"
 1342               	__c.1948:
 1343 037d 310D 0A00 		.string	"1\r\n"
 1346               	__c.1946:
 1347 0381 330D 0A00 		.string	"3\r\n"
 1350               	__c.1944:
 1351 0385 320D 0A00 		.string	"2\r\n"
 1354               	__c.1942:
 1355 0389 656E 7465 		.string	"entering HVAC\r\n"
 1355      7269 6E67 
 1355      2048 5641 
 1355      430D 0A00 
 1358               	__c.1940:
 1359 0399 4461 6D70 		.string	"Damper Close Complete.\r\n"
 1359      6572 2043 
 1359      6C6F 7365 
 1359      2043 6F6D 
 1359      706C 6574 
 1362               	__c.1938:
 1363 03b2 0D0A 00   		.string	"\r\n"
 1366               	__c.1936:
 1367 03b5 5374 6172 		.string	"Starting to close Damper"
 1367      7469 6E67 
 1367      2074 6F20 
 1367      636C 6F73 
 1367      6520 4461 
 1370               	__c.1933:
 1371 03ce 4461 6D70 		.string	"Damper Open Complete.\r\n"
 1371      6572 204F 
 1371      7065 6E20 
 1371      436F 6D70 
 1371      6C65 7465 
 1374               	__c.1931:
 1375 03e6 0D0A 00   		.string	"\r\n"
 1378               	__c.1929:
 1379 03e9 4552 524F 		.string	"ERROR:1 \r\nformat to small, see help for details\r\n"
 1379      523A 3120 
 1379      0D0A 666F 
 1379      726D 6174 
 1379      2074 6F20 
 1382               	__c.1927:
 1383 041b 0D0A 00   		.string	"\r\n"
 1386               	__c.1925:
 1387 041e 5265 6365 		.string	"Received: "
 1387      6976 6564 
 1387      3A20 00
 1390               	__c.1875:
 1391 0429 0D0A 00   		.string	"\r\n"
 1394               	__c.1872:
 1395 042c 3E20 00   		.string	"> "
 1398               	__c.1870:
 1399 042f 0D0A 746F 		.string	"\r\nto receive general help type \"-help\"\r\n\r\n>"
 1399      2072 6563 
 1399      6569 7665 
 1399      2067 656E 
 1399      6572 616C 
 1402               	__c.1868:
 1403 045b 2A2A 2A2A 		.string	"***************************************"
 1403      2A2A 2A2A 
 1403      2A2A 2A2A 
 1403      2A2A 2A2A 
 1403      2A2A 2A2A 
 1406               	__c.1866:
 1407 0483 0D0A 5765 		.string	"\r\nWelcome to Epic Cube Serial Control Version 0.0.1\r\n"
 1407      6C63 6F6D 
 1407      6520 746F 
 1407      2045 7069 
 1407      6320 4375 
 1410               	__c.1864:
 1411 04b9 0D0A 2A2A 		.string	"\r\n***************************************"
 1411      2A2A 2A2A 
 1411      2A2A 2A2A 
 1411      2A2A 2A2A 
 1411      2A2A 2A2A 
 1412               		.comm GFanStatus,2,1
 1413               		.comm WHeatStatus,2,1
 1414               		.comm YCoolStatus,2,1
 1415               		.comm HVACStatus,2,1
 1488               	.Letext0:
DEFINED SYMBOLS
                            *ABS*:00000000 mainControl.c
C:\Users\laptop\AppData\Local\Temp/ccNeLsYu.s:2      *ABS*:0000003f __SREG__
C:\Users\laptop\AppData\Local\Temp/ccNeLsYu.s:3      *ABS*:0000003e __SP_H__
C:\Users\laptop\AppData\Local\Temp/ccNeLsYu.s:4      *ABS*:0000003d __SP_L__
C:\Users\laptop\AppData\Local\Temp/ccNeLsYu.s:5      *ABS*:00000034 __CCP__
C:\Users\laptop\AppData\Local\Temp/ccNeLsYu.s:6      *ABS*:00000000 __tmp_reg__
C:\Users\laptop\AppData\Local\Temp/ccNeLsYu.s:7      *ABS*:00000001 __zero_reg__
C:\Users\laptop\AppData\Local\Temp/ccNeLsYu.s:19     .text.initializeGlobal:00000000 initializeGlobal
C:\Users\laptop\AppData\Local\Temp/ccNeLsYu.s:42     .text.convert_by_division:00000000 convert_by_division
C:\Users\laptop\AppData\Local\Temp/ccNeLsYu.s:95     .text.convertAsciiToInt:00000000 convertAsciiToInt
C:\Users\laptop\AppData\Local\Temp/ccNeLsYu.s:203    .text.send_str:00000000 send_str
C:\Users\laptop\AppData\Local\Temp/ccNeLsYu.s:248    .text.parse_and_execute_command:00000000 parse_and_execute_command
C:\Users\laptop\AppData\Local\Temp/ccNeLsYu.s:1190   .data:00000000 verbose
C:\Users\laptop\AppData\Local\Temp/ccNeLsYu.s:1386   .progmem.data:0000041e __c.1925
C:\Users\laptop\AppData\Local\Temp/ccNeLsYu.s:1382   .progmem.data:0000041b __c.1927
C:\Users\laptop\AppData\Local\Temp/ccNeLsYu.s:1378   .progmem.data:000003e9 __c.1929
C:\Users\laptop\AppData\Local\Temp/ccNeLsYu.s:1374   .progmem.data:000003e6 __c.1931
C:\Users\laptop\AppData\Local\Temp/ccNeLsYu.s:1370   .progmem.data:000003ce __c.1933
C:\Users\laptop\AppData\Local\Temp/ccNeLsYu.s:1366   .progmem.data:000003b5 __c.1936
C:\Users\laptop\AppData\Local\Temp/ccNeLsYu.s:1362   .progmem.data:000003b2 __c.1938
C:\Users\laptop\AppData\Local\Temp/ccNeLsYu.s:1358   .progmem.data:00000399 __c.1940
C:\Users\laptop\AppData\Local\Temp/ccNeLsYu.s:1354   .progmem.data:00000389 __c.1942
                            *COM*:00000002 GFanStatus
C:\Users\laptop\AppData\Local\Temp/ccNeLsYu.s:1350   .progmem.data:00000385 __c.1944
C:\Users\laptop\AppData\Local\Temp/ccNeLsYu.s:1346   .progmem.data:00000381 __c.1946
C:\Users\laptop\AppData\Local\Temp/ccNeLsYu.s:1342   .progmem.data:0000037d __c.1948
C:\Users\laptop\AppData\Local\Temp/ccNeLsYu.s:1338   .progmem.data:00000379 __c.1950
                            *COM*:00000002 WHeatStatus
C:\Users\laptop\AppData\Local\Temp/ccNeLsYu.s:1334   .progmem.data:00000375 __c.1952
                            *COM*:00000002 YCoolStatus
C:\Users\laptop\AppData\Local\Temp/ccNeLsYu.s:1330   .progmem.data:00000371 __c.1954
C:\Users\laptop\AppData\Local\Temp/ccNeLsYu.s:1326   .progmem.data:0000036d __c.1956
C:\Users\laptop\AppData\Local\Temp/ccNeLsYu.s:1322   .progmem.data:00000369 __c.1958
C:\Users\laptop\AppData\Local\Temp/ccNeLsYu.s:1318   .progmem.data:00000351 __c.1960
C:\Users\laptop\AppData\Local\Temp/ccNeLsYu.s:1314   .progmem.data:00000339 __c.1962
C:\Users\laptop\AppData\Local\Temp/ccNeLsYu.s:1310   .progmem.data:00000315 __c.1964
C:\Users\laptop\AppData\Local\Temp/ccNeLsYu.s:1306   .progmem.data:000002f1 __c.1966
C:\Users\laptop\AppData\Local\Temp/ccNeLsYu.s:1302   .progmem.data:000002d9 __c.1968
C:\Users\laptop\AppData\Local\Temp/ccNeLsYu.s:1298   .progmem.data:000002d6 __c.1971
C:\Users\laptop\AppData\Local\Temp/ccNeLsYu.s:1294   .progmem.data:000002d3 __c.1975
C:\Users\laptop\AppData\Local\Temp/ccNeLsYu.s:1290   .progmem.data:000002bf __c.1977
C:\Users\laptop\AppData\Local\Temp/ccNeLsYu.s:1286   .progmem.data:000002b1 __c.1980
C:\Users\laptop\AppData\Local\Temp/ccNeLsYu.s:1282   .progmem.data:0000029b __c.1982
C:\Users\laptop\AppData\Local\Temp/ccNeLsYu.s:1278   .progmem.data:0000027e __c.1984
C:\Users\laptop\AppData\Local\Temp/ccNeLsYu.s:1274   .progmem.data:00000260 __c.1987
C:\Users\laptop\AppData\Local\Temp/ccNeLsYu.s:1197   .bss:00000000 invalidInput
C:\Users\laptop\AppData\Local\Temp/ccNeLsYu.s:1270   .progmem.data:00000241 __c.1990
C:\Users\laptop\AppData\Local\Temp/ccNeLsYu.s:1266   .progmem.data:0000023e __c.1993
C:\Users\laptop\AppData\Local\Temp/ccNeLsYu.s:1262   .progmem.data:0000022f __c.1995
C:\Users\laptop\AppData\Local\Temp/ccNeLsYu.s:1258   .progmem.data:00000203 __c.1999
C:\Users\laptop\AppData\Local\Temp/ccNeLsYu.s:1254   .progmem.data:000001e4 __c.2001
C:\Users\laptop\AppData\Local\Temp/ccNeLsYu.s:1250   .progmem.data:000001c5 __c.2003
C:\Users\laptop\AppData\Local\Temp/ccNeLsYu.s:1246   .progmem.data:000001a8 __c.2005
C:\Users\laptop\AppData\Local\Temp/ccNeLsYu.s:1242   .progmem.data:00000183 __c.2007
C:\Users\laptop\AppData\Local\Temp/ccNeLsYu.s:1238   .progmem.data:0000014d __c.2009
C:\Users\laptop\AppData\Local\Temp/ccNeLsYu.s:1234   .progmem.data:00000110 __c.2011
C:\Users\laptop\AppData\Local\Temp/ccNeLsYu.s:1230   .progmem.data:000000f2 __c.2013
C:\Users\laptop\AppData\Local\Temp/ccNeLsYu.s:1226   .progmem.data:000000c6 __c.2015
C:\Users\laptop\AppData\Local\Temp/ccNeLsYu.s:1222   .progmem.data:0000009a __c.2017
C:\Users\laptop\AppData\Local\Temp/ccNeLsYu.s:1218   .progmem.data:00000067 __c.2019
C:\Users\laptop\AppData\Local\Temp/ccNeLsYu.s:1214   .progmem.data:00000040 __c.2021
C:\Users\laptop\AppData\Local\Temp/ccNeLsYu.s:1210   .progmem.data:00000016 __c.2023
C:\Users\laptop\AppData\Local\Temp/ccNeLsYu.s:1206   .progmem.data:00000003 __c.2025
C:\Users\laptop\AppData\Local\Temp/ccNeLsYu.s:1202   .progmem.data:00000000 __c.2027
C:\Users\laptop\AppData\Local\Temp/ccNeLsYu.s:961    .text.recv_str:00000000 recv_str
C:\Users\laptop\AppData\Local\Temp/ccNeLsYu.s:1048   .text.main:00000000 main
C:\Users\laptop\AppData\Local\Temp/ccNeLsYu.s:1410   .progmem.data:000004b9 __c.1864
C:\Users\laptop\AppData\Local\Temp/ccNeLsYu.s:1406   .progmem.data:00000483 __c.1866
C:\Users\laptop\AppData\Local\Temp/ccNeLsYu.s:1402   .progmem.data:0000045b __c.1868
C:\Users\laptop\AppData\Local\Temp/ccNeLsYu.s:1398   .progmem.data:0000042f __c.1870
C:\Users\laptop\AppData\Local\Temp/ccNeLsYu.s:1394   .progmem.data:0000042c __c.1872
C:\Users\laptop\AppData\Local\Temp/ccNeLsYu.s:1390   .progmem.data:00000429 __c.1875
                            *COM*:00000002 HVACStatus

UNDEFINED SYMBOLS
__udivmodhi4
usb_serial_putchar
usb_serial_write
CheckDamper
OpenDamper
CloseDamper
ReadGFan
ReadWHeat
ReadYCool
SetWHeat
SetYCool
SetGFan
SetHVAC
ReadTempSensor
PulseGarage
SprinklerCntrl
FanSpeedStatus
FanStatus
TurnFanOff
SetFan
usb_serial_getchar
usb_configured
usb_serial_get_control
PWMNew
PWMStart
PWMDuty
initializeHVACGarage
InitializeDamper
InitializeSprinkler
InitializeFans
usb_init
usb_serial_flush_input
__do_copy_data
__do_clear_bss
